; Function Attrs: mustprogress nounwind uwtable
define noundef nonnull align 8 dereferenceable(24) ptr @_ZN17RichParameterListaSES_(ptr noundef nonnull returned align 8 dereferenceable(24) %0, ptr noundef nonnull %1) local_unnamed_addr #4 align 2 personality ptr @__gxx_personality_v0 {
  tail call void @_ZNSt8__detail15_List_node_base4swapERS0_S1_(ptr noundef nonnull align 8 dereferenceable(16) %0, ptr noundef nonnull align 8 dereferenceable(16) %1) #22
  %3 = getelementptr inbounds i8, ptr %1, i64 16
  %4 = load i64, ptr %3, align 8
  %5 = getelementptr inbounds i8, ptr %0, i64 16
  %6 = load i64, ptr %5, align 8
  store i64 %6, ptr %3, align 8
  store i64 %4, ptr %5, align 8
  ret ptr %0
}